; ModuleID = '51/84.c'
source_filename = "51/84.c"
target datalayout = "e-m:e-p270:32:32-p271:32:32-p272:64:64-i64:64-f80:128-n8:16:32:64-S128"
target triple = "x86_64-pc-linux-gnu"

@.str = private unnamed_addr constant [4 x i8] c"%d\0A\00", align 1
@.str.1 = private unnamed_addr constant [3 x i8] c"NO\00", align 1
@.str.2 = private unnamed_addr constant [3 x i8] c"%c\00", align 1
@.str.3 = private unnamed_addr constant [2 x i8] c"\0A\00", align 1

; Function Attrs: noinline nounwind uwtable
define dso_local i32 @main() #0 {
  %1 = alloca i32, align 4
  %2 = alloca [502 x i8], align 16
  %3 = alloca [502 x [6 x i8]], align 16
  %4 = alloca [502 x i32], align 16
  %5 = alloca i32, align 4
  %6 = alloca i32, align 4
  %7 = alloca i32, align 4
  %8 = alloca i32, align 4
  %9 = alloca i32, align 4
  store i32 0, i32* %1, align 4
  %10 = bitcast [502 x i32]* %4 to i8*
  call void @llvm.memset.p0i8.i64(i8* align 16 %10, i8 0, i64 2008, i1 false)
  %11 = call i32 (i8*, ...) @__isoc99_scanf(i8* getelementptr inbounds ([4 x i8], [4 x i8]* @.str, i64 0, i64 0), i32* %5)
  %12 = getelementptr inbounds [502 x i8], [502 x i8]* %2, i64 0, i64 0
  %13 = call i32 (i8*, ...) bitcast (i32 (...)* @gets to i32 (i8*, ...)*)(i8* %12)
  %14 = getelementptr inbounds [502 x i8], [502 x i8]* %2, i64 0, i64 0
  %15 = call i64 @strlen(i8* %14) #4
  %16 = trunc i64 %15 to i32
  store i32 %16, i32* %6, align 4
  store i32 0, i32* %8, align 4
  br label %17

17:                                               ; preds = %45, %0
  %18 = load i32, i32* %8, align 4
  %19 = load i32, i32* %6, align 4
  %20 = load i32, i32* %5, align 4
  %21 = sub nsw i32 %19, %20
  %22 = icmp sle i32 %18, %21
  br i1 %22, label %23, label %48

23:                                               ; preds = %17
  store i32 0, i32* %9, align 4
  br label %24

24:                                               ; preds = %41, %23
  %25 = load i32, i32* %9, align 4
  %26 = load i32, i32* %5, align 4
  %27 = icmp slt i32 %25, %26
  br i1 %27, label %28, label %44

28:                                               ; preds = %24
  %29 = load i32, i32* %8, align 4
  %30 = load i32, i32* %9, align 4
  %31 = add nsw i32 %29, %30
  %32 = sext i32 %31 to i64
  %33 = getelementptr inbounds [502 x i8], [502 x i8]* %2, i64 0, i64 %32
  %34 = load i8, i8* %33, align 1
  %35 = load i32, i32* %8, align 4
  %36 = sext i32 %35 to i64
  %37 = getelementptr inbounds [502 x [6 x i8]], [502 x [6 x i8]]* %3, i64 0, i64 %36
  %38 = load i32, i32* %9, align 4
  %39 = sext i32 %38 to i64
  %40 = getelementptr inbounds [6 x i8], [6 x i8]* %37, i64 0, i64 %39
  store i8 %34, i8* %40, align 1
  br label %41

41:                                               ; preds = %28
  %42 = load i32, i32* %9, align 4
  %43 = add nsw i32 %42, 1
  store i32 %43, i32* %9, align 4
  br label %24

44:                                               ; preds = %24
  br label %45

45:                                               ; preds = %44
  %46 = load i32, i32* %8, align 4
  %47 = add nsw i32 %46, 1
  store i32 %47, i32* %8, align 4
  br label %17

48:                                               ; preds = %17
  store i32 0, i32* %8, align 4
  br label %49

49:                                               ; preds = %59, %48
  %50 = load i32, i32* %8, align 4
  %51 = icmp slt i32 %50, 502
  br i1 %51, label %52, label %62

52:                                               ; preds = %49
  %53 = load i32, i32* %8, align 4
  %54 = sext i32 %53 to i64
  %55 = getelementptr inbounds [502 x [6 x i8]], [502 x [6 x i8]]* %3, i64 0, i64 %54
  %56 = load i32, i32* %5, align 4
  %57 = sext i32 %56 to i64
  %58 = getelementptr inbounds [6 x i8], [6 x i8]* %55, i64 0, i64 %57
  store i8 0, i8* %58, align 1
  br label %59

59:                                               ; preds = %52
  %60 = load i32, i32* %8, align 4
  %61 = add nsw i32 %60, 1
  store i32 %61, i32* %8, align 4
  br label %49

62:                                               ; preds = %49
  store i32 0, i32* %8, align 4
  br label %63

63:                                               ; preds = %99, %62
  %64 = load i32, i32* %8, align 4
  %65 = load i32, i32* %6, align 4
  %66 = load i32, i32* %5, align 4
  %67 = sub nsw i32 %65, %66
  %68 = icmp sle i32 %64, %67
  br i1 %68, label %69, label %102

69:                                               ; preds = %63
  %70 = load i32, i32* %8, align 4
  store i32 %70, i32* %9, align 4
  br label %71

71:                                               ; preds = %95, %69
  %72 = load i32, i32* %9, align 4
  %73 = load i32, i32* %6, align 4
  %74 = load i32, i32* %5, align 4
  %75 = sub nsw i32 %73, %74
  %76 = icmp sle i32 %72, %75
  br i1 %76, label %77, label %98

77:                                               ; preds = %71
  %78 = load i32, i32* %8, align 4
  %79 = sext i32 %78 to i64
  %80 = getelementptr inbounds [502 x [6 x i8]], [502 x [6 x i8]]* %3, i64 0, i64 %79
  %81 = getelementptr inbounds [6 x i8], [6 x i8]* %80, i64 0, i64 0
  %82 = load i32, i32* %9, align 4
  %83 = sext i32 %82 to i64
  %84 = getelementptr inbounds [502 x [6 x i8]], [502 x [6 x i8]]* %3, i64 0, i64 %83
  %85 = getelementptr inbounds [6 x i8], [6 x i8]* %84, i64 0, i64 0
  %86 = call i32 @strcmp(i8* %81, i8* %85) #4
  %87 = icmp eq i32 %86, 0
  br i1 %87, label %88, label %94

88:                                               ; preds = %77
  %89 = load i32, i32* %8, align 4
  %90 = sext i32 %89 to i64
  %91 = getelementptr inbounds [502 x i32], [502 x i32]* %4, i64 0, i64 %90
  %92 = load i32, i32* %91, align 4
  %93 = add nsw i32 %92, 1
  store i32 %93, i32* %91, align 4
  br label %94

94:                                               ; preds = %88, %77
  br label %95

95:                                               ; preds = %94
  %96 = load i32, i32* %9, align 4
  %97 = add nsw i32 %96, 1
  store i32 %97, i32* %9, align 4
  br label %71

98:                                               ; preds = %71
  br label %99

99:                                               ; preds = %98
  %100 = load i32, i32* %8, align 4
  %101 = add nsw i32 %100, 1
  store i32 %101, i32* %8, align 4
  br label %63

102:                                              ; preds = %63
  store i32 0, i32* %7, align 4
  store i32 0, i32* %8, align 4
  br label %103

103:                                              ; preds = %122, %102
  %104 = load i32, i32* %8, align 4
  %105 = load i32, i32* %6, align 4
  %106 = load i32, i32* %5, align 4
  %107 = sub nsw i32 %105, %106
  %108 = icmp sle i32 %104, %107
  br i1 %108, label %109, label %125

109:                                              ; preds = %103
  %110 = load i32, i32* %8, align 4
  %111 = sext i32 %110 to i64
  %112 = getelementptr inbounds [502 x i32], [502 x i32]* %4, i64 0, i64 %111
  %113 = load i32, i32* %112, align 4
  %114 = load i32, i32* %7, align 4
  %115 = icmp sgt i32 %113, %114
  br i1 %115, label %116, label %121

116:                                              ; preds = %109
  %117 = load i32, i32* %8, align 4
  %118 = sext i32 %117 to i64
  %119 = getelementptr inbounds [502 x i32], [502 x i32]* %4, i64 0, i64 %118
  %120 = load i32, i32* %119, align 4
  store i32 %120, i32* %7, align 4
  br label %121

121:                                              ; preds = %116, %109
  br label %122

122:                                              ; preds = %121
  %123 = load i32, i32* %8, align 4
  %124 = add nsw i32 %123, 1
  store i32 %124, i32* %8, align 4
  br label %103

125:                                              ; preds = %103
  %126 = load i32, i32* %7, align 4
  %127 = icmp eq i32 %126, 1
  br i1 %127, label %128, label %130

128:                                              ; preds = %125
  %129 = call i32 (i8*, ...) @printf(i8* getelementptr inbounds ([3 x i8], [3 x i8]* @.str.1, i64 0, i64 0))
  br label %171

130:                                              ; preds = %125
  %131 = load i32, i32* %7, align 4
  %132 = call i32 (i8*, ...) @printf(i8* getelementptr inbounds ([4 x i8], [4 x i8]* @.str, i64 0, i64 0), i32 %131)
  store i32 0, i32* %8, align 4
  br label %133

133:                                              ; preds = %167, %130
  %134 = load i32, i32* %8, align 4
  %135 = load i32, i32* %6, align 4
  %136 = load i32, i32* %5, align 4
  %137 = sub nsw i32 %135, %136
  %138 = icmp sle i32 %134, %137
  br i1 %138, label %139, label %170

139:                                              ; preds = %133
  %140 = load i32, i32* %8, align 4
  %141 = sext i32 %140 to i64
  %142 = getelementptr inbounds [502 x i32], [502 x i32]* %4, i64 0, i64 %141
  %143 = load i32, i32* %142, align 4
  %144 = load i32, i32* %7, align 4
  %145 = icmp eq i32 %143, %144
  br i1 %145, label %146, label %166

146:                                              ; preds = %139
  store i32 0, i32* %9, align 4
  br label %147

147:                                              ; preds = %161, %146
  %148 = load i32, i32* %9, align 4
  %149 = load i32, i32* %5, align 4
  %150 = icmp slt i32 %148, %149
  br i1 %150, label %151, label %164

151:                                              ; preds = %147
  %152 = load i32, i32* %8, align 4
  %153 = sext i32 %152 to i64
  %154 = getelementptr inbounds [502 x [6 x i8]], [502 x [6 x i8]]* %3, i64 0, i64 %153
  %155 = load i32, i32* %9, align 4
  %156 = sext i32 %155 to i64
  %157 = getelementptr inbounds [6 x i8], [6 x i8]* %154, i64 0, i64 %156
  %158 = load i8, i8* %157, align 1
  %159 = sext i8 %158 to i32
  %160 = call i32 (i8*, ...) @printf(i8* getelementptr inbounds ([3 x i8], [3 x i8]* @.str.2, i64 0, i64 0), i32 %159)
  br label %161

161:                                              ; preds = %151
  %162 = load i32, i32* %9, align 4
  %163 = add nsw i32 %162, 1
  store i32 %163, i32* %9, align 4
  br label %147

164:                                              ; preds = %147
  %165 = call i32 (i8*, ...) @printf(i8* getelementptr inbounds ([2 x i8], [2 x i8]* @.str.3, i64 0, i64 0))
  br label %166

166:                                              ; preds = %164, %139
  br label %167

167:                                              ; preds = %166
  %168 = load i32, i32* %8, align 4
  %169 = add nsw i32 %168, 1
  store i32 %169, i32* %8, align 4
  br label %133

170:                                              ; preds = %133
  br label %171

171:                                              ; preds = %170, %128
  ret i32 0
}

; Function Attrs: argmemonly nounwind willreturn
declare void @llvm.memset.p0i8.i64(i8* nocapture writeonly, i8, i64, i1 immarg) #1

declare dso_local i32 @__isoc99_scanf(i8*, ...) #2

declare dso_local i32 @gets(...) #2

; Function Attrs: nounwind readonly
declare dso_local i64 @strlen(i8*) #3

; Function Attrs: nounwind readonly
declare dso_local i32 @strcmp(i8*, i8*) #3

declare dso_local i32 @printf(i8*, ...) #2


!llvm.module.flags = !{!0}
!llvm.ident = !{!1}

!0 = !{i32 1, !"wchar_size", i32 4}
!1 = !{!"clang version 10.0.0-4ubuntu1 "}
